; Function Attrs: mustprogress nofree norecurse nosync nounwind willreturn memory(argmem: write) uwtable
define void @_ZN4pkpy5TupleC2EPNS_8PyObjectES2_S2_(ptr noundef nonnull align 8 dereferenceable(36) %0, ptr noundef %1, ptr noundef %2, ptr noundef %3) unnamed_addr #6 align 2 {
  %5 = getelementptr inbounds i8, ptr %0, i64 8
  store ptr %5, ptr %0, align 8
  %6 = getelementptr inbounds i8, ptr %0, i64 32
  store i32 3, ptr %6, align 8
  store ptr %1, ptr %5, align 8
  %7 = getelementptr inbounds i8, ptr %0, i64 16
  store ptr %2, ptr %7, align 8
  %8 = getelementptr inbounds i8, ptr %0, i64 24
  store ptr %3, ptr %8, align 8
  ret void
}